; Function Attrs: nounwind uwtable
define dso_local void @display_progress(ptr noundef %0, i64 noundef %1) local_unnamed_addr #1 {
  %.not = icmp eq ptr %0, null
  br i1 %.not, label %4, label %3

3:                                                ; preds = %2
  tail call fastcc void @display(ptr noundef %0, i64 noundef %1, ptr noundef null)
  br label %4

4:                                                ; preds = %3, %2
  ret void
}